; Function Attrs: mustprogress nounwind uwtable
define hidden void @_ZN10JavaThread9interruptEv(ptr noundef nonnull align 8 dereferenceable(1800) %0) local_unnamed_addr #0 align 2 {
  %2 = getelementptr inbounds i8, ptr %0, i64 1712
  %3 = load ptr, ptr %2, align 8
  tail call void @_ZN13PlatformEvent6unparkEv(ptr noundef nonnull align 8 dereferenceable(144) %3) #21
  %4 = getelementptr inbounds i8, ptr %0, i64 1560
  tail call void @_ZN6Parker6unparkEv(ptr noundef nonnull align 8 dereferenceable(144) %4) #21
  %5 = getelementptr inbounds i8, ptr %0, i64 848
  %6 = load volatile ptr, ptr %5, align 8
  tail call void @_ZN13PlatformEvent6unparkEv(ptr noundef nonnull align 8 dereferenceable(144) %6) #21
  ret void
}